
pagecross.elf:     file format elf64-littleriscv


Disassembly of section .text.init:

0000000080000000 <reset_vector>:
    80000000:	00000013          	addi	x0,x0,0
    80000004:	00000013          	addi	x0,x0,0
    80000008:	00000013          	addi	x0,x0,0
    8000000c:	00000013          	addi	x0,x0,0
    80000010:	00000013          	addi	x0,x0,0
    80000014:	00000013          	addi	x0,x0,0
    80000018:	00000013          	addi	x0,x0,0
    8000001c:	00000093          	addi	x1,x0,0
    80000020:	00000113          	addi	x2,x0,0
    80000024:	00000193          	addi	x3,x0,0
    80000028:	00000213          	addi	x4,x0,0
    8000002c:	00000293          	addi	x5,x0,0
    80000030:	00000313          	addi	x6,x0,0
    80000034:	00000393          	addi	x7,x0,0
    80000038:	00000413          	addi	x8,x0,0
    8000003c:	00000493          	addi	x9,x0,0
    80000040:	00000513          	addi	x10,x0,0
    80000044:	00000593          	addi	x11,x0,0
    80000048:	00000613          	addi	x12,x0,0
    8000004c:	00000693          	addi	x13,x0,0
    80000050:	00000713          	addi	x14,x0,0
    80000054:	00000793          	addi	x15,x0,0
    80000058:	00000813          	addi	x16,x0,0
    8000005c:	00000893          	addi	x17,x0,0
    80000060:	00000913          	addi	x18,x0,0
    80000064:	00000993          	addi	x19,x0,0
    80000068:	00000a13          	addi	x20,x0,0
    8000006c:	00000a93          	addi	x21,x0,0
    80000070:	00000b13          	addi	x22,x0,0
    80000074:	00000b93          	addi	x23,x0,0
    80000078:	00000c13          	addi	x24,x0,0
    8000007c:	00000c93          	addi	x25,x0,0
    80000080:	00000d13          	addi	x26,x0,0
    80000084:	00000d93          	addi	x27,x0,0
    80000088:	00000e13          	addi	x28,x0,0
    8000008c:	00000e93          	addi	x29,x0,0
    80000090:	00000f13          	addi	x30,x0,0
    80000094:	00000f93          	addi	x31,x0,0
    80000098:	00000013          	addi	x0,x0,0
    8000009c:	00000013          	addi	x0,x0,0
    800000a0:	7610106f          	jal	x0,80002000 <_start>
    800000a4:	00000013          	addi	x0,x0,0

Disassembly of section .text:

0000000080002000 <_start>:
    80002000:	42fd                	c.li	x5,31
    80002002:	3a029073          	csrrw	x0,pmpcfg0,x5
    80002006:	52fd                	c.li	x5,-1
    80002008:	3b029073          	csrrw	x0,pmpaddr0,x5
    8000200c:	00000117          	auipc	x2,0x0
    80002010:	0d810113          	addi	x2,x2,216 # 800020e4 <mtrap_handler>
    80002014:	30511073          	csrrw	x0,mtvec,x2
    80002018:	00001117          	auipc	x2,0x1
    8000201c:	fe810113          	addi	x2,x2,-24 # 80003000 <mtrap_save>
    80002020:	34011073          	csrrw	x0,mscratch,x2
    80002024:	fff80137          	lui	x2,0xfff80
    80002028:	0631011b          	addiw	x2,x2,99
    8000202c:	1102                	c.slli	x2,0x20
    8000202e:	08110113          	addi	x2,x2,129 # fffffffffff80081 <_end+0xffffffff7ef7b081>
    80002032:	0132                	c.slli	x2,0xc
    80002034:	18011073          	csrrw	x0,satp,x2
    80002038:	00000297          	auipc	x5,0x0
    8000203c:	02428293          	addi	x5,x5,36 # 8000205c <_start+0x5c>
    80002040:	34129073          	csrrw	x0,mepc,x5
    80002044:	6289                	c.lui	x5,0x2
    80002046:	8002829b          	addiw	x5,x5,-2048
    8000204a:	3002b073          	csrrc	x0,mstatus,x5
    8000204e:	6305                	c.lui	x6,0x1
    80002050:	8003031b          	addiw	x6,x6,-2048
    80002054:	30032073          	csrrs	x0,mstatus,x6
    80002058:	30200073          	mret
    8000205c:	00002117          	auipc	x2,0x2
    80002060:	f9a10113          	addi	x2,x2,-102 # 80003ff6 <mydata>
    80002064:	000801b7          	lui	x3,0x80
    80002068:	218d                	c.addiw	x3,3
    8000206a:	01b2                	c.slli	x3,0xc
    8000206c:	6205                	c.lui	x4,0x1
    8000206e:	3259                	c.addiw	x4,-10
    80002070:	920e                	c.add	x4,x3
    80002072:	06221163          	bne	x4,x2,800020d4 <fail>
    80002076:	00e86237          	lui	x4,0xe86
    8000207a:	df72021b          	addiw	x4,x4,-521
    8000207e:	023a                	c.slli	x4,0xe
    80002080:	6285                	c.lui	x5,0x1
    80002082:	32f9                	c.addiw	x5,-2
    80002084:	9292                	c.add	x5,x4
    80002086:	00000f97          	auipc	x31,0x0
    8000208a:	00af8f93          	addi	x31,x31,10 # 80002090 <_start+0x90>
    8000208e:	8282                	c.jr	x5
    80002090:	628d                	c.lui	x5,0x3
    80002092:	32f1                	c.addiw	x5,-4
    80002094:	9292                	c.add	x5,x4
    80002096:	0002b303          	ld	x6,0(x5) # 3000 <reset_vector-0x7fffd000>
    8000209a:	6395                	c.lui	x7,0x5
    8000209c:	33f1                	c.addiw	x7,-4
    8000209e:	9392                	c.add	x7,x4
    800020a0:	547d                	c.li	x8,-1
    800020a2:	0083b023          	sd	x8,0(x7) # 5000 <reset_vector-0x7fffb000>
    800020a6:	0063b023          	sd	x6,0(x7)
    800020aa:	0000100f          	fence.i
    800020ae:	00000073          	ecall

00000000800020b2 <pass>:
    800020b2:	4185                	c.li	x3,1
    800020b4:	ffffff17          	auipc	x30,0xfffff
    800020b8:	f43f2623          	sw	x3,-180(x30) # 80001000 <tohost>

00000000800020bc <endless_loop>:
    800020bc:	a001                	c.j	800020bc <endless_loop>
    800020be:	0001                	c.addi	x0,0
    800020c0:	0001                	c.addi	x0,0
    800020c2:	0001                	c.addi	x0,0
    800020c4:	0001                	c.addi	x0,0

00000000800020c6 <testnum_failure>:
    800020c6:	0011e193          	ori	x3,x3,1
    800020ca:	ffffff17          	auipc	x30,0xfffff
    800020ce:	f23f2b23          	sw	x3,-202(x30) # 80001000 <tohost>
    800020d2:	b7ed                	c.j	800020bc <endless_loop>

00000000800020d4 <fail>:
    800020d4:	fe0199e3          	bne	x3,x0,800020c6 <testnum_failure>
    800020d8:	51fd                	c.li	x3,-1
    800020da:	ffffff17          	auipc	x30,0xfffff
    800020de:	f23f2323          	sw	x3,-218(x30) # 80001000 <tohost>
    800020e2:	bfe9                	c.j	800020bc <endless_loop>

00000000800020e4 <mtrap_handler>:
    800020e4:	34011173          	csrrw	x2,mscratch,x2
    800020e8:	e00e                	c.sdsp	x3,0(x2)
    800020ea:	e412                	c.sdsp	x4,8(x2)
    800020ec:	e816                	c.sdsp	x5,16(x2)
    800020ee:	ec1a                	c.sdsp	x6,24(x2)
    800020f0:	00002197          	auipc	x3,0x2
    800020f4:	f0618193          	addi	x3,x3,-250 # 80003ff6 <mydata>
    800020f8:	0021b203          	ld	x4,2(x3)
    800020fc:	00a1b283          	ld	x5,10(x3)
    80002100:	6205                	c.lui	x4,0x1
    80002102:	9192                	c.add	x3,x4
    80002104:	0021b203          	ld	x4,2(x3)
    80002108:	00a1b283          	ld	x5,10(x3)
    8000210c:	342021f3          	csrrs	x3,mcause,x0
    80002110:	5271                	c.li	x4,-4
    80002112:	00327233          	and	x4,x4,x3
    80002116:	42b1                	c.li	x5,12
    80002118:	00520663          	beq	x4,x5,80002124 <mtrap_page_fault>
    8000211c:	42a5                	c.li	x5,9
    8000211e:	0c518163          	beq	x3,x5,800021e0 <mtrap_ecall>
    80002122:	bf4d                	c.j	800020d4 <fail>

0000000080002124 <mtrap_page_fault>:
    80002124:	18002273          	csrrs	x4,satp,x0
    80002128:	004002b7          	lui	x5,0x400
    8000212c:	32fd                	c.addiw	x5,-1
    8000212e:	005272b3          	and	x5,x4,x5
    80002132:	02b2                	c.slli	x5,0xc
    80002134:	34302373          	csrrs	x6,mtval,x0
    80002138:	01b35313          	srli	x6,x6,0x1b
    8000213c:	6185                	c.lui	x3,0x1
    8000213e:	31e1                	c.addiw	x3,-8
    80002140:	00337333          	and	x6,x6,x3
    80002144:	00536333          	or	x6,x6,x5
    80002148:	00033283          	ld	x5,0(x6) # 1000 <reset_vector-0x7ffff000>
    8000214c:	00f2f313          	andi	x6,x5,15
    80002150:	4205                	c.li	x4,1
    80002152:	f84311e3          	bne	x6,x4,800020d4 <fail>
    80002156:	0010019b          	addiw	x3,x0,1
    8000215a:	11da                	c.slli	x3,0x36
    8000215c:	c0018193          	addi	x3,x3,-1024 # c00 <reset_vector-0x7ffff400>
    80002160:	0051f2b3          	and	x5,x3,x5
    80002164:	028a                	c.slli	x5,0x2
    80002166:	34302373          	csrrs	x6,mtval,x0
    8000216a:	01235313          	srli	x6,x6,0x12
    8000216e:	6185                	c.lui	x3,0x1
    80002170:	31e1                	c.addiw	x3,-8
    80002172:	00337333          	and	x6,x6,x3
    80002176:	00536333          	or	x6,x6,x5
    8000217a:	00033283          	ld	x5,0(x6)
    8000217e:	00f2f313          	andi	x6,x5,15
    80002182:	4205                	c.li	x4,1
    80002184:	f44318e3          	bne	x6,x4,800020d4 <fail>
    80002188:	0010019b          	addiw	x3,x0,1
    8000218c:	11da                	c.slli	x3,0x36
    8000218e:	c0018193          	addi	x3,x3,-1024 # c00 <reset_vector-0x7ffff400>
    80002192:	0051f2b3          	and	x5,x3,x5
    80002196:	028a                	c.slli	x5,0x2
    80002198:	34302373          	csrrs	x6,mtval,x0
    8000219c:	00935313          	srli	x6,x6,0x9
    800021a0:	6185                	c.lui	x3,0x1
    800021a2:	31e1                	c.addiw	x3,-8
    800021a4:	00337333          	and	x6,x6,x3
    800021a8:	00536333          	or	x6,x6,x5
    800021ac:	00033283          	ld	x5,0(x6)
    800021b0:	04000193          	addi	x3,x0,64
    800021b4:	0032f233          	and	x4,x5,x3
    800021b8:	00021563          	bne	x4,x0,800021c2 <check_dirty>
    800021bc:	0032e2b3          	or	x5,x5,x3
    800021c0:	a809                	c.j	800021d2 <write_pte>

00000000800021c2 <check_dirty>:
    800021c2:	08000193          	addi	x3,x0,128
    800021c6:	0032f233          	and	x4,x5,x3
    800021ca:	f00215e3          	bne	x4,x0,800020d4 <fail>
    800021ce:	0032e2b3          	or	x5,x5,x3

00000000800021d2 <write_pte>:
    800021d2:	00533023          	sd	x5,0(x6)
    800021d6:	34302373          	csrrs	x6,mtval,x0
    800021da:	12030073          	sfence.vma	x6,x0
    800021de:	a829                	c.j	800021f8 <mtrap_return>

00000000800021e0 <mtrap_ecall>:
    800021e0:	341021f3          	csrrs	x3,mepc,x0
    800021e4:	4211                	c.li	x4,4
    800021e6:	9192                	c.add	x3,x4
    800021e8:	34119073          	csrrw	x0,mepc,x3
    800021ec:	6209                	c.lui	x4,0x2
    800021ee:	8002021b          	addiw	x4,x4,-2048
    800021f2:	30022073          	csrrs	x0,mstatus,x4
    800021f6:	a009                	c.j	800021f8 <mtrap_return>

00000000800021f8 <mtrap_return>:
    800021f8:	6362                	c.ldsp	x6,24(x2)
    800021fa:	62c2                	c.ldsp	x5,16(x2)
    800021fc:	6222                	c.ldsp	x4,8(x2)
    800021fe:	6182                	c.ldsp	x3,0(x2)
    80002200:	34011173          	csrrw	x2,mscratch,x2
    80002204:	30200073          	mret
    80002208:	0000                	c.unimp
    8000220a:	0000                	c.unimp
    8000220c:	0000                	c.unimp
    8000220e:	0000                	c.unimp
    80002210:	0000                	c.unimp
    80002212:	0000                	c.unimp
    80002214:	0000                	c.unimp
    80002216:	0000                	c.unimp
    80002218:	0000                	c.unimp
    8000221a:	0000                	c.unimp
    8000221c:	0000                	c.unimp
    8000221e:	0000                	c.unimp
    80002220:	0000                	c.unimp
    80002222:	0000                	c.unimp
    80002224:	0000                	c.unimp
    80002226:	0000                	c.unimp
    80002228:	0000                	c.unimp
    8000222a:	0000                	c.unimp
    8000222c:	0000                	c.unimp
    8000222e:	0000                	c.unimp
    80002230:	0000                	c.unimp
    80002232:	0000                	c.unimp
    80002234:	0000                	c.unimp
    80002236:	0000                	c.unimp
    80002238:	0000                	c.unimp
    8000223a:	0000                	c.unimp
    8000223c:	0000                	c.unimp
